target datalayout = "e-m:e-p270:32:32-p271:32:32-p272:64:64-i64:64-i128:128-f80:128-n8:16:32:64-S128"
target triple = "x86_64-pc-linux-gnu"

%struct._zval_struct = type { %union._zend_value, %union.anon.3, %union.anon.6 }
%union._zend_value = type { i64 }
%union.anon.3 = type { i32 }
%union.anon.6 = type { i32 }
%struct._zend_array = type { %struct._zend_refcounted_h, %union.anon.0, i32, %union.anon.1, i32, i32, i32, i32, i64, ptr }
%struct._zend_refcounted_h = type { i32, %union.anon }
%union.anon = type { i32 }
%union.anon.0 = type { i32 }
%union.anon.1 = type { ptr }
%struct._zend_object_handlers = type { i32, ptr, ptr, ptr, ptr, ptr, ptr, ptr, ptr, ptr, ptr, ptr, ptr, ptr, ptr, ptr, ptr, ptr, ptr, ptr, ptr, ptr, ptr, ptr, ptr }
%struct._spl_SplObjectStorage = type { %struct._zend_array, i64, i32, i64, ptr, %struct._zend_object }
%struct._zend_object = type { %struct._zend_refcounted_h, i32, ptr, ptr, ptr, [1 x %struct._zval_struct] }
%struct._spl_SplObjectStorageElement = type { ptr, %struct._zval_struct }
%struct._zend_reference = type { %struct._zend_refcounted_h, %struct._zval_struct, %union.zend_property_info_source_list }
%union.zend_property_info_source_list = type { ptr }
%struct._zend_string = type { %struct._zend_refcounted_h, i64, i64, [1 x i8] }
%struct._zend_resource = type { %struct._zend_refcounted_h, i64, i32, ptr }

; Function Attrs: nounwind uwtable
define internal ptr @spl_object_storage_from_obj(ptr noundef %0) #0 {
  %2 = alloca ptr, align 8
  store ptr %0, ptr %2, align 8
  %3 = load ptr, ptr %2, align 8
  %4 = getelementptr inbounds i8, ptr %3, i64 -88
  ret ptr %4
}

; Function Attrs: nounwind uwtable
define internal i32 @spl_object_storage_has_dimension(ptr noundef %0, ptr noundef %1, i32 noundef %2) #0 {
  %4 = alloca ptr, align 8
  %5 = alloca ptr, align 8
  %6 = alloca ptr, align 8
  %7 = alloca i8, align 1
  %8 = alloca ptr, align 8
  %9 = alloca ptr, align 8
  %10 = alloca i64, align 8
  %11 = alloca ptr, align 8
  %12 = alloca ptr, align 8
  %13 = alloca i32, align 4
  %14 = alloca ptr, align 8
  %15 = alloca ptr, align 8
  %16 = alloca i32, align 4
  %17 = alloca ptr, align 8
  %18 = alloca ptr, align 8
  store ptr %0, ptr %14, align 8
  store ptr %1, ptr %15, align 8
  store i32 %2, ptr %16, align 4
  %19 = load ptr, ptr %14, align 8
  %20 = call ptr @spl_object_storage_from_obj(ptr noundef %19)
  store ptr %20, ptr %17, align 8
  %21 = load ptr, ptr %15, align 8
  %22 = icmp eq ptr %21, null
  br i1 %22, label %36, label %23

23:                                               ; preds = %3
  %24 = load ptr, ptr %15, align 8
  store ptr %24, ptr %12, align 8
  %25 = load ptr, ptr %12, align 8
  %26 = getelementptr inbounds %struct._zval_struct, ptr %25, i32 0, i32 1
  %27 = load i8, ptr %26, align 8
  %28 = zext i8 %27 to i32
  %29 = icmp ne i32 %28, 8
  br i1 %29, label %36, label %30

30:                                               ; preds = %23
  %31 = load ptr, ptr %17, align 8
  %32 = getelementptr inbounds %struct._spl_SplObjectStorage, ptr %31, i32 0, i32 3
  %33 = load i64, ptr %32, align 8
  %34 = and i64 %33, 1
  %35 = icmp ne i64 %34, 0
  br label %36

36:                                               ; preds = %30, %23, %3
  %37 = phi i1 [ true, %23 ], [ true, %3 ], [ %35, %30 ]
  %38 = xor i1 %37, true
  %39 = xor i1 %38, true
  %40 = zext i1 %39 to i32
  %41 = sext i32 %40 to i64
  %42 = icmp ne i64 %41, 0
  br i1 %42, label %43, label %48

43:                                               ; preds = %36
  %44 = load ptr, ptr %14, align 8
  %45 = load ptr, ptr %15, align 8
  %46 = load i32, ptr %16, align 4
  %47 = call i32 @zend_std_has_dimension(ptr noundef %44, ptr noundef %45, i32 noundef %46)
  store i32 %47, ptr %13, align 4
  br label %161

48:                                               ; preds = %36
  %49 = load ptr, ptr %17, align 8
  %50 = getelementptr inbounds %struct._spl_SplObjectStorage, ptr %49, i32 0, i32 0
  %51 = load ptr, ptr %15, align 8
  %52 = getelementptr inbounds %struct._zval_struct, ptr %51, i32 0, i32 0
  %53 = load ptr, ptr %52, align 8
  %54 = getelementptr inbounds %struct._zend_object, ptr %53, i32 0, i32 1
  %55 = load i32, ptr %54, align 8
  %56 = zext i32 %55 to i64
  store ptr %50, ptr %9, align 8
  store i64 %56, ptr %10, align 8
  %57 = load ptr, ptr %9, align 8
  %58 = load i64, ptr %10, align 8
  %59 = call ptr @zend_hash_index_find(ptr noundef %57, i64 noundef %58) #10
  store ptr %59, ptr %11, align 8
  %60 = load ptr, ptr %11, align 8
  %61 = icmp ne ptr %60, null
  br i1 %61, label %62, label %68

62:                                               ; preds = %48
  %63 = load ptr, ptr %11, align 8
  %64 = load ptr, ptr %63, align 8
  %65 = icmp ne ptr %64, null
  call void @llvm.assume(i1 %65)
  %66 = load ptr, ptr %11, align 8
  %67 = load ptr, ptr %66, align 8
  store ptr %67, ptr %8, align 8
  br label %69

68:                                               ; preds = %48
  store ptr null, ptr %8, align 8
  br label %69

69:                                               ; preds = %68, %62
  %70 = load ptr, ptr %8, align 8
  store ptr %70, ptr %18, align 8
  %71 = load ptr, ptr %18, align 8
  %72 = icmp ne ptr %71, null
  br i1 %72, label %74, label %73

73:                                               ; preds = %69
  store i32 0, ptr %13, align 4
  br label %161

74:                                               ; preds = %69
  %75 = load i32, ptr %16, align 4
  %76 = icmp ne i32 %75, 0
  br i1 %76, label %77, label %160

77:                                               ; preds = %74
  %78 = load ptr, ptr %18, align 8
  %79 = getelementptr inbounds %struct._spl_SplObjectStorageElement, ptr %78, i32 0, i32 1
  store ptr %79, ptr %6, align 8
  store i8 0, ptr %7, align 1
  br label %80

80:                                               ; preds = %151, %77
  %81 = load ptr, ptr %6, align 8
  store ptr %81, ptr %4, align 8
  %82 = load ptr, ptr %4, align 8
  %83 = getelementptr inbounds %struct._zval_struct, ptr %82, i32 0, i32 1
  %84 = load i8, ptr %83, align 8
  %85 = zext i8 %84 to i32
  switch i32 %85, label %155 [
    i32 3, label %86
    i32 4, label %87
    i32 5, label %93
    i32 6, label %99
    i32 7, label %120
    i32 8, label %129
    i32 9, label %143
    i32 10, label %151
  ]

86:                                               ; preds = %80
  store i8 1, ptr %7, align 1
  br label %156

87:                                               ; preds = %80
  %88 = load ptr, ptr %6, align 8
  %89 = load i64, ptr %88, align 8
  %90 = icmp ne i64 %89, 0
  br i1 %90, label %91, label %92

91:                                               ; preds = %87
  store i8 1, ptr %7, align 1
  br label %92

92:                                               ; preds = %91, %87
  br label %156

93:                                               ; preds = %80
  %94 = load ptr, ptr %6, align 8
  %95 = load double, ptr %94, align 8
  %96 = fcmp une double %95, 0.000000e+00
  br i1 %96, label %97, label %98

97:                                               ; preds = %93
  store i8 1, ptr %7, align 1
  br label %98

98:                                               ; preds = %97, %93
  br label %156

99:                                               ; preds = %80
  %100 = load ptr, ptr %6, align 8
  %101 = load ptr, ptr %100, align 8
  %102 = getelementptr inbounds %struct._zend_string, ptr %101, i32 0, i32 2
  %103 = load i64, ptr %102, align 8
  %104 = icmp ugt i64 %103, 1
  br i1 %104, label %118, label %105

105:                                              ; preds = %99
  %106 = load ptr, ptr %6, align 8
  %107 = load ptr, ptr %106, align 8
  %108 = getelementptr inbounds %struct._zend_string, ptr %107, i32 0, i32 2
  %109 = load i64, ptr %108, align 8
  %110 = icmp ne i64 %109, 0
  br i1 %110, label %111, label %119

111:                                              ; preds = %105
  %112 = load ptr, ptr %6, align 8
  %113 = load ptr, ptr %112, align 8
  %114 = getelementptr inbounds %struct._zend_string, ptr %113, i32 0, i32 3
  %115 = load i8, ptr %114, align 8
  %116 = sext i8 %115 to i32
  %117 = icmp ne i32 %116, 48
  br i1 %117, label %118, label %119

118:                                              ; preds = %111, %99
  store i8 1, ptr %7, align 1
  br label %119

119:                                              ; preds = %118, %111, %105
  br label %156

120:                                              ; preds = %80
  %121 = load ptr, ptr %6, align 8
  %122 = load ptr, ptr %121, align 8
  store ptr %122, ptr %5, align 8
  %123 = load ptr, ptr %5, align 8
  %124 = getelementptr inbounds %struct._zend_array, ptr %123, i32 0, i32 5
  %125 = load i32, ptr %124, align 4
  %126 = icmp ne i32 %125, 0
  br i1 %126, label %127, label %128

127:                                              ; preds = %120
  store i8 1, ptr %7, align 1
  br label %128

128:                                              ; preds = %127, %120
  br label %156

129:                                              ; preds = %80
  %130 = load ptr, ptr %6, align 8
  %131 = load ptr, ptr %130, align 8
  %132 = getelementptr inbounds %struct._zend_object, ptr %131, i32 0, i32 3
  %133 = load ptr, ptr %132, align 8
  %134 = getelementptr inbounds %struct._zend_object_handlers, ptr %133, i32 0, i32 17
  %135 = load ptr, ptr %134, align 8
  %136 = icmp eq ptr %135, @zend_std_cast_object_tostring
  br i1 %136, label %137, label %138

137:                                              ; preds = %129
  store i8 1, ptr %7, align 1
  br label %142

138:                                              ; preds = %129
  %139 = load ptr, ptr %6, align 8
  %140 = call zeroext i1 @zend_object_is_true(ptr noundef %139) #10
  %141 = zext i1 %140 to i8
  store i8 %141, ptr %7, align 1
  br label %142

142:                                              ; preds = %138, %137
  br label %156

143:                                              ; preds = %80
  %144 = load ptr, ptr %6, align 8
  %145 = load ptr, ptr %144, align 8
  %146 = getelementptr inbounds %struct._zend_resource, ptr %145, i32 0, i32 1
  %147 = load i64, ptr %146, align 8
  %148 = icmp ne i64 %147, 0
  br i1 %148, label %149, label %150

149:                                              ; preds = %143
  store i8 1, ptr %7, align 1
  br label %150

150:                                              ; preds = %149, %143
  br label %156

151:                                              ; preds = %80
  %152 = load ptr, ptr %6, align 8
  %153 = load ptr, ptr %152, align 8
  %154 = getelementptr inbounds %struct._zend_reference, ptr %153, i32 0, i32 1
  store ptr %154, ptr %6, align 8
  br label %80

155:                                              ; preds = %80
  br label %156

156:                                              ; preds = %155, %150, %142, %128, %119, %98, %92, %86
  %157 = load i8, ptr %7, align 1
  %158 = trunc i8 %157 to i1
  %159 = zext i1 %158 to i32
  store i32 %159, ptr %13, align 4
  br label %161

160:                                              ; preds = %74
  store i32 1, ptr %13, align 4
  br label %161

161:                                              ; preds = %160, %156, %73, %43
  %162 = load i32, ptr %13, align 4
  ret i32 %162
}