; Function Attrs: nounwind uwtable
define internal i32 @spl_object_storage_has_dimension(ptr noundef %0, ptr noundef %1, i32 noundef %2) #0 {
  %4 = getelementptr inbounds i8, ptr %0, i64 -88
  %5 = icmp eq ptr %1, null
  br i1 %5, label %.critedge, label %6

6:                                                ; preds = %3
  %7 = getelementptr inbounds i8, ptr %1, i64 8
  %8 = load i8, ptr %7, align 8
  %.not = icmp eq i8 %8, 8
  br i1 %.not, label %9, label %.critedge

9:                                                ; preds = %6
  %10 = getelementptr inbounds i8, ptr %0, i64 -16
  %11 = load i64, ptr %10, align 8
  %12 = and i64 %11, 1
  %.not51 = icmp eq i64 %12, 0
  br i1 %.not51, label %14, label %.critedge

.critedge:                                        ; preds = %6, %3, %9
  %13 = tail call i32 @zend_std_has_dimension(ptr noundef %0, ptr noundef %1, i32 noundef %2) #10
  br label %.thread

14:                                               ; preds = %9
  %15 = load ptr, ptr %1, align 8
  %16 = getelementptr inbounds i8, ptr %15, i64 8
  %17 = load i32, ptr %16, align 8
  %18 = zext i32 %17 to i64
  %19 = tail call ptr @zend_hash_index_find(ptr noundef nonnull %4, i64 noundef %18) #10
  %.not39 = icmp eq ptr %19, null
  br i1 %.not39, label %.thread, label %20

20:                                               ; preds = %14
  %.not41 = icmp eq i32 %2, 0
  br i1 %.not41, label %.thread, label %.preheader

.preheader:                                       ; preds = %20, %.preheader
  %.034.pn.in = phi ptr [ %.0, %.preheader ], [ %19, %20 ]
  %.034.pn = load ptr, ptr %.034.pn.in, align 8
  %.0 = getelementptr inbounds i8, ptr %.034.pn, i64 8
  %21 = getelementptr inbounds i8, ptr %.034.pn, i64 16
  %22 = load i8, ptr %21, align 8
  switch i8 %22, label %.thread.loopexit [
    i8 3, label %.thread
    i8 4, label %23
    i8 5, label %25
    i8 6, label %29
    i8 7, label %39
    i8 8, label %43
    i8 9, label %53
    i8 10, label %.preheader
  ]

23:                                               ; preds = %.preheader
  %24 = load i64, ptr %.0, align 8
  %.not46 = icmp ne i64 %24, 0
  %spec.select = zext i1 %.not46 to i32
  br label %.thread

25:                                               ; preds = %.preheader
  %26 = load double, ptr %.0, align 8
  %27 = fcmp une double %26, 0.000000e+00
  br i1 %27, label %28, label %.thread

28:                                               ; preds = %25
  br label %.thread

29:                                               ; preds = %.preheader
  %30 = load ptr, ptr %.0, align 8
  %31 = getelementptr inbounds i8, ptr %30, i64 16
  %32 = load i64, ptr %31, align 8
  %33 = icmp ugt i64 %32, 1
  br i1 %33, label %38, label %34

34:                                               ; preds = %29
  %.not44 = icmp eq i64 %32, 0
  br i1 %.not44, label %.thread, label %35

35:                                               ; preds = %34
  %36 = getelementptr inbounds i8, ptr %30, i64 24
  %37 = load i8, ptr %36, align 8
  %.not45 = icmp eq i8 %37, 48
  br i1 %.not45, label %.thread, label %38

38:                                               ; preds = %35, %29
  br label %.thread

39:                                               ; preds = %.preheader
  %40 = load ptr, ptr %.0, align 8
  %41 = getelementptr inbounds i8, ptr %40, i64 28
  %42 = load i32, ptr %41, align 4
  %.not43 = icmp ne i32 %42, 0
  %spec.select47 = zext i1 %.not43 to i32
  br label %.thread

43:                                               ; preds = %.preheader
  %44 = load ptr, ptr %.0, align 8
  %45 = getelementptr inbounds i8, ptr %44, i64 24
  %46 = load ptr, ptr %45, align 8
  %47 = getelementptr inbounds i8, ptr %46, i64 136
  %48 = load ptr, ptr %47, align 8
  %49 = icmp eq ptr %48, @zend_std_cast_object_tostring
  br i1 %49, label %.thread, label %50

50:                                               ; preds = %43
  %51 = tail call zeroext i1 @zend_object_is_true(ptr noundef nonnull %.0) #10
  %52 = zext i1 %51 to i32
  br label %.thread

53:                                               ; preds = %.preheader
  %54 = load ptr, ptr %.0, align 8
  %55 = getelementptr inbounds i8, ptr %54, i64 8
  %56 = load i64, ptr %55, align 8
  %.not42 = icmp ne i64 %56, 0
  %spec.select48 = zext i1 %.not42 to i32
  br label %.thread

.thread.loopexit:                                 ; preds = %.preheader
  br label %.thread

.thread:                                          ; preds = %.preheader, %.thread.loopexit, %14, %53, %39, %23, %20, %28, %25, %38, %35, %34, %50, %43, %.critedge
  %.035 = phi i32 [ %13, %.critedge ], [ %52, %50 ], [ 1, %38 ], [ 0, %35 ], [ 0, %34 ], [ 1, %28 ], [ 0, %25 ], [ %spec.select, %23 ], [ %spec.select47, %39 ], [ 1, %43 ], [ %spec.select48, %53 ], [ 1, %20 ], [ 0, %14 ], [ 0, %.thread.loopexit ], [ 1, %.preheader ]
  ret i32 %.035
}